; Function Attrs: alwaysinline norecurse nounwind uwtable
define internal void @_ZNK4ncnn14Interp_x86_avx7forwardERKSt6vectorINS_3MatESaIS2_EERS4_RKNS_6OptionE.omp_outlined.11(ptr noalias noundef readonly captures(none) %0, ptr noalias readnone captures(none) %1, ptr noundef nonnull readonly align 4 captures(none) dereferenceable(4) %2, ptr noundef nonnull readonly align 8 captures(none) dereferenceable(72) %3, ptr noundef nonnull readonly align 8 captures(none) dereferenceable(72) %4, ptr noundef nonnull readonly align 8 captures(none) dereferenceable(8) %5, ptr noundef nonnull readonly align 4 captures(none) dereferenceable(4) %6, ptr noundef nonnull readonly align 8 captures(none) dereferenceable(8) %7) #10 personality ptr @__gxx_personality_v0 {
  %9 = alloca i32, align 4
  %10 = alloca i32, align 4
  %11 = alloca i32, align 4
  %12 = alloca i32, align 4
  %13 = load i32, ptr %2, align 4, !tbaa !16
  %14 = icmp sgt i32 %13, 0
  br i1 %14, label %15, label %69

15:                                               ; preds = %8
  %16 = add nsw i32 %13, -1
  call void @llvm.lifetime.start.p0(i64 4, ptr nonnull %9) #6
  store i32 0, ptr %9, align 4, !tbaa !16
  call void @llvm.lifetime.start.p0(i64 4, ptr nonnull %10) #6
  store i32 %16, ptr %10, align 4, !tbaa !16
  call void @llvm.lifetime.start.p0(i64 4, ptr nonnull %11) #6
  store i32 1, ptr %11, align 4, !tbaa !16
  call void @llvm.lifetime.start.p0(i64 4, ptr nonnull %12) #6
  store i32 0, ptr %12, align 4, !tbaa !16
  %17 = load i32, ptr %0, align 4, !tbaa !16
  call void @__kmpc_for_static_init_4(ptr nonnull @1, i32 %17, i32 34, ptr nonnull %12, ptr nonnull %9, ptr nonnull %10, ptr nonnull %11, i32 1, i32 1)
  %18 = load i32, ptr %10, align 4, !tbaa !16
  %19 = call i32 @llvm.smin.i32(i32 %18, i32 %16)
  store i32 %19, ptr %10, align 4, !tbaa !16
  %20 = load i32, ptr %9, align 4, !tbaa !16
  %.not44 = icmp sgt i32 %20, %19
  br i1 %.not44, label %._crit_edge48, label %.lr.ph47

.lr.ph47:                                         ; preds = %15
  %21 = load ptr, ptr %3, align 8, !tbaa !25
  %22 = getelementptr inbounds nuw i8, ptr %3, i64 44
  %23 = load i32, ptr %22, align 4, !tbaa !17
  %24 = sext i32 %23 to i64
  %25 = getelementptr inbounds nuw i8, ptr %3, i64 16
  %26 = load i64, ptr %25, align 8, !tbaa !20
  %factor.op.mul = mul i64 %26, %24
  %27 = load ptr, ptr %4, align 8, !tbaa !25
  %28 = getelementptr inbounds nuw i8, ptr %4, i64 44
  %29 = load i32, ptr %28, align 4, !tbaa !17
  %30 = sext i32 %29 to i64
  %31 = getelementptr inbounds nuw i8, ptr %4, i64 16
  %32 = load i64, ptr %31, align 8, !tbaa !20
  %factor.op.mul49 = mul i64 %32, %30
  %33 = load ptr, ptr %5, align 8, !tbaa !51
  %34 = load i32, ptr %6, align 4, !tbaa !16
  %35 = icmp sgt i32 %34, 0
  %36 = load ptr, ptr %7, align 8
  br i1 %35, label %.lr.ph.us.preheader, label %._crit_edge48

.lr.ph.us.preheader:                              ; preds = %.lr.ph47
  %37 = sext i32 %20 to i64
  %38 = add nsw i32 %19, 1
  %wide.trip.count = zext nneg i32 %34 to i64
  br label %.lr.ph.us

.lr.ph.us:                                        ; preds = %.lr.ph.us.preheader, %._crit_edge.us
  %indvars.iv53 = phi i64 [ %37, %.lr.ph.us.preheader ], [ %indvars.iv.next54, %._crit_edge.us ]
  %.reass.us = mul i64 %factor.op.mul, %indvars.iv53
  %39 = getelementptr inbounds nuw i8, ptr %21, i64 %.reass.us
  %.reass50.us = mul i64 %factor.op.mul49, %indvars.iv53
  %40 = getelementptr inbounds nuw i8, ptr %27, i64 %.reass50.us
  br label %41

41:                                               ; preds = %.lr.ph.us, %41
  %indvars.iv = phi i64 [ 0, %.lr.ph.us ], [ %indvars.iv.next, %41 ]
  %.03843.us = phi ptr [ %40, %.lr.ph.us ], [ %67, %41 ]
  %.03942.us = phi ptr [ %33, %.lr.ph.us ], [ %68, %41 ]
  %42 = getelementptr inbounds nuw i32, ptr %36, i64 %indvars.iv
  %43 = load i32, ptr %42, align 4, !tbaa !16
  %44 = sext i32 %43 to i64
  %45 = getelementptr inbounds float, ptr %39, i64 %44
  %46 = load float, ptr %.03942.us, align 4, !tbaa !49
  %47 = getelementptr inbounds nuw i8, ptr %.03942.us, i64 4
  %48 = load float, ptr %47, align 4, !tbaa !49
  %49 = getelementptr inbounds nuw i8, ptr %.03942.us, i64 8
  %50 = load float, ptr %49, align 4, !tbaa !49
  %51 = getelementptr inbounds nuw i8, ptr %.03942.us, i64 12
  %52 = load float, ptr %51, align 4, !tbaa !49
  %53 = getelementptr inbounds i8, ptr %45, i64 -4
  %54 = load float, ptr %53, align 4, !tbaa !49
  %55 = fmul fast float %54, %46
  %56 = load float, ptr %45, align 4, !tbaa !49
  %57 = fmul fast float %56, %48
  %58 = fadd fast float %57, %55
  %59 = getelementptr inbounds nuw i8, ptr %45, i64 4
  %60 = load float, ptr %59, align 4, !tbaa !49
  %61 = fmul fast float %60, %50
  %62 = fadd fast float %58, %61
  %63 = getelementptr inbounds nuw i8, ptr %45, i64 8
  %64 = load float, ptr %63, align 4, !tbaa !49
  %65 = fmul fast float %64, %52
  %66 = fadd fast float %62, %65
  %67 = getelementptr inbounds nuw i8, ptr %.03843.us, i64 4
  store float %66, ptr %.03843.us, align 4, !tbaa !49
  %68 = getelementptr inbounds nuw i8, ptr %.03942.us, i64 16
  %indvars.iv.next = add nuw nsw i64 %indvars.iv, 1
  %exitcond.not = icmp eq i64 %indvars.iv.next, %wide.trip.count
  br i1 %exitcond.not, label %._crit_edge.us, label %41, !llvm.loop !90

._crit_edge.us:                                   ; preds = %41
  %indvars.iv.next54 = add nsw i64 %indvars.iv53, 1
  %lftr.wideiv = trunc i64 %indvars.iv.next54 to i32
  %exitcond56.not = icmp eq i32 %38, %lftr.wideiv
  br i1 %exitcond56.not, label %._crit_edge48, label %.lr.ph.us

._crit_edge48:                                    ; preds = %._crit_edge.us, %.lr.ph47, %15
  call void @__kmpc_for_static_fini(ptr nonnull @1, i32 %17)
  call void @llvm.lifetime.end.p0(i64 4, ptr nonnull %12) #6
  call void @llvm.lifetime.end.p0(i64 4, ptr nonnull %11) #6
  call void @llvm.lifetime.end.p0(i64 4, ptr nonnull %10) #6
  call void @llvm.lifetime.end.p0(i64 4, ptr nonnull %9) #6
  br label %69

69:                                               ; preds = %._crit_edge48, %8
  ret void
}